target datalayout = "e-m:e-p270:32:32-p271:32:32-p272:64:64-i64:64-i128:128-f80:128-n8:16:32:64-S128"
target triple = "x86_64-pc-linux-gnu"

%struct.mbedtls_ssl_cache_context = type { ptr, i32, i32 }
%struct.mbedtls_ssl_cache_entry = type { i64, [32 x i8], i64, ptr, i64, ptr }

; Function Attrs: nounwind uwtable
define internal i32 @ssl_cache_find_entry(ptr noundef %0, ptr noundef %1, i64 noundef %2, ptr noundef %3) #0 {
  %5 = alloca ptr, align 8
  %6 = alloca ptr, align 8
  %7 = alloca i64, align 8
  %8 = alloca ptr, align 8
  %9 = alloca i32, align 4
  %10 = alloca i64, align 8
  %11 = alloca ptr, align 8
  store ptr %0, ptr %5, align 8, !tbaa !3
  store ptr %1, ptr %6, align 8, !tbaa !14
  store i64 %2, ptr %7, align 8, !tbaa !16
  store ptr %3, ptr %8, align 8, !tbaa !25
  call void @llvm.lifetime.start.p0(i64 4, ptr %9) #8
  store i32 -32384, ptr %9, align 4, !tbaa !20
  call void @llvm.lifetime.start.p0(i64 8, ptr %10) #8
  %12 = call i64 @time(ptr noundef null) #8
  store i64 %12, ptr %10, align 8, !tbaa !16
  call void @llvm.lifetime.start.p0(i64 8, ptr %11) #8
  %13 = load ptr, ptr %5, align 8, !tbaa !3
  %14 = getelementptr inbounds nuw %struct.mbedtls_ssl_cache_context, ptr %13, i32 0, i32 0
  %15 = load ptr, ptr %14, align 8, !tbaa !28
  store ptr %15, ptr %11, align 8, !tbaa !21
  br label %16

16:                                               ; preds = %54, %4
  %17 = load ptr, ptr %11, align 8, !tbaa !21
  %18 = icmp ne ptr %17, null
  br i1 %18, label %19, label %58

19:                                               ; preds = %16
  %20 = load ptr, ptr %5, align 8, !tbaa !3
  %21 = getelementptr inbounds nuw %struct.mbedtls_ssl_cache_context, ptr %20, i32 0, i32 1
  %22 = load i32, ptr %21, align 8, !tbaa !8
  %23 = icmp ne i32 %22, 0
  br i1 %23, label %24, label %36

24:                                               ; preds = %19
  %25 = load i64, ptr %10, align 8, !tbaa !16
  %26 = load ptr, ptr %11, align 8, !tbaa !21
  %27 = getelementptr inbounds nuw %struct.mbedtls_ssl_cache_entry, ptr %26, i32 0, i32 0
  %28 = load i64, ptr %27, align 8, !tbaa !29
  %29 = sub nsw i64 %25, %28
  %30 = trunc i64 %29 to i32
  %31 = load ptr, ptr %5, align 8, !tbaa !3
  %32 = getelementptr inbounds nuw %struct.mbedtls_ssl_cache_context, ptr %31, i32 0, i32 1
  %33 = load i32, ptr %32, align 8, !tbaa !8
  %34 = icmp sgt i32 %30, %33
  br i1 %34, label %35, label %36

35:                                               ; preds = %24
  br label %54

36:                                               ; preds = %24, %19
  %37 = load i64, ptr %7, align 8, !tbaa !16
  %38 = load ptr, ptr %11, align 8, !tbaa !21
  %39 = getelementptr inbounds nuw %struct.mbedtls_ssl_cache_entry, ptr %38, i32 0, i32 2
  %40 = load i64, ptr %39, align 8, !tbaa !30
  %41 = icmp ne i64 %37, %40
  br i1 %41, label %52, label %42

42:                                               ; preds = %36
  %43 = load ptr, ptr %6, align 8, !tbaa !14
  %44 = load ptr, ptr %11, align 8, !tbaa !21
  %45 = getelementptr inbounds nuw %struct.mbedtls_ssl_cache_entry, ptr %44, i32 0, i32 1
  %46 = getelementptr inbounds [32 x i8], ptr %45, i64 0, i64 0
  %47 = load ptr, ptr %11, align 8, !tbaa !21
  %48 = getelementptr inbounds nuw %struct.mbedtls_ssl_cache_entry, ptr %47, i32 0, i32 2
  %49 = load i64, ptr %48, align 8, !tbaa !30
  %50 = call i32 @memcmp(ptr noundef %43, ptr noundef %46, i64 noundef %49) #9
  %51 = icmp ne i32 %50, 0
  br i1 %51, label %52, label %53

52:                                               ; preds = %42, %36
  br label %54

53:                                               ; preds = %42
  br label %58

54:                                               ; preds = %52, %35
  %55 = load ptr, ptr %11, align 8, !tbaa !21
  %56 = getelementptr inbounds nuw %struct.mbedtls_ssl_cache_entry, ptr %55, i32 0, i32 5
  %57 = load ptr, ptr %56, align 8, !tbaa !31
  store ptr %57, ptr %11, align 8, !tbaa !21
  br label %16, !llvm.loop !32

58:                                               ; preds = %53, %16
  %59 = load ptr, ptr %11, align 8, !tbaa !21
  %60 = icmp ne ptr %59, null
  br i1 %60, label %61, label %64

61:                                               ; preds = %58
  %62 = load ptr, ptr %11, align 8, !tbaa !21
  %63 = load ptr, ptr %8, align 8, !tbaa !25
  store ptr %62, ptr %63, align 8, !tbaa !21
  store i32 0, ptr %9, align 4, !tbaa !20
  br label %64

64:                                               ; preds = %61, %58
  %65 = load i32, ptr %9, align 4, !tbaa !20
  call void @llvm.lifetime.end.p0(i64 8, ptr %11) #8
  call void @llvm.lifetime.end.p0(i64 8, ptr %10) #8
  call void @llvm.lifetime.end.p0(i64 4, ptr %9) #8
  ret i32 %65
}

; Function Attrs: nounwind uwtable
define hidden i32 @mbedtls_ssl_cache_get(ptr noundef %0, ptr noundef %1, i64 noundef %2, ptr noundef %3) #0 {
  %5 = alloca ptr, align 8
  %6 = alloca ptr, align 8
  %7 = alloca i64, align 8
  %8 = alloca ptr, align 8
  %9 = alloca i32, align 4
  %10 = alloca ptr, align 8
  %11 = alloca ptr, align 8
  store ptr %0, ptr %5, align 8, !tbaa !13
  store ptr %1, ptr %6, align 8, !tbaa !14
  store i64 %2, ptr %7, align 8, !tbaa !16
  store ptr %3, ptr %8, align 8, !tbaa !18
  call void @llvm.lifetime.start.p0(i64 4, ptr %9) #8
  store i32 -110, ptr %9, align 4, !tbaa !20
  call void @llvm.lifetime.start.p0(i64 8, ptr %10) #8
  %12 = load ptr, ptr %5, align 8, !tbaa !13
  store ptr %12, ptr %10, align 8, !tbaa !3
  call void @llvm.lifetime.start.p0(i64 8, ptr %11) #8
  %13 = load ptr, ptr %10, align 8, !tbaa !3
  %14 = load ptr, ptr %6, align 8, !tbaa !14
  %15 = load i64, ptr %7, align 8, !tbaa !16
  %16 = call i32 @ssl_cache_find_entry(ptr noundef %13, ptr noundef %14, i64 noundef %15, ptr noundef %11)
  store i32 %16, ptr %9, align 4, !tbaa !20
  %17 = load i32, ptr %9, align 4, !tbaa !20
  %18 = icmp ne i32 %17, 0
  br i1 %18, label %19, label %20

19:                                               ; preds = %4
  br label %33

20:                                               ; preds = %4
  %21 = load ptr, ptr %8, align 8, !tbaa !18
  %22 = load ptr, ptr %11, align 8, !tbaa !21
  %23 = getelementptr inbounds nuw %struct.mbedtls_ssl_cache_entry, ptr %22, i32 0, i32 3
  %24 = load ptr, ptr %23, align 8, !tbaa !22
  %25 = load ptr, ptr %11, align 8, !tbaa !21
  %26 = getelementptr inbounds nuw %struct.mbedtls_ssl_cache_entry, ptr %25, i32 0, i32 4
  %27 = load i64, ptr %26, align 8, !tbaa !24
  %28 = call i32 @mbedtls_ssl_session_load(ptr noundef %21, ptr noundef %24, i64 noundef %27)
  store i32 %28, ptr %9, align 4, !tbaa !20
  %29 = load i32, ptr %9, align 4, !tbaa !20
  %30 = icmp ne i32 %29, 0
  br i1 %30, label %31, label %32

31:                                               ; preds = %20
  br label %33

32:                                               ; preds = %20
  store i32 0, ptr %9, align 4, !tbaa !20
  br label %33

33:                                               ; preds = %32, %31, %19
  %34 = load i32, ptr %9, align 4, !tbaa !20
  call void @llvm.lifetime.end.p0(i64 8, ptr %11) #8
  call void @llvm.lifetime.end.p0(i64 8, ptr %10) #8
  call void @llvm.lifetime.end.p0(i64 4, ptr %9) #8
  ret i32 %34
}