; Function Attrs: nounwind uwtable
define hidden i32 @mbedtls_ssl_cache_get(ptr noundef readonly captures(none) %0, ptr noundef readonly captures(none) %1, i64 noundef %2, ptr noundef %3) local_unnamed_addr #1 {
  %5 = tail call i64 @time(ptr noundef null) #10
  %.022.i = load ptr, ptr %0, align 8, !tbaa !11
  %.not23.i = icmp eq ptr %.022.i, null
  br i1 %.not23.i, label %ssl_cache_find_entry.exit.thread, label %.lr.ph.i

.lr.ph.i:                                         ; preds = %4
  %6 = getelementptr inbounds nuw i8, ptr %0, i64 8
  %7 = load i32, ptr %6, align 8, !tbaa !3
  %.not18.i = icmp eq i32 %7, 0
  br i1 %.not18.i, label %.lr.ph.split.us.i, label %.lr.ph.split.i

.lr.ph.split.us.i:                                ; preds = %.lr.ph.i, %12
  %.024.us.i = phi ptr [ %.0.us.i, %12 ], [ %.022.i, %.lr.ph.i ]
  %8 = getelementptr inbounds nuw i8, ptr %.024.us.i, i64 40
  %9 = load i64, ptr %8, align 8, !tbaa !12
  %.not19.us.i = icmp eq i64 %2, %9
  br i1 %.not19.us.i, label %10, label %12

10:                                               ; preds = %.lr.ph.split.us.i
  %11 = getelementptr inbounds nuw i8, ptr %.024.us.i, i64 8
  %bcmp.us.i = tail call i32 @bcmp(ptr readonly %1, ptr nonnull %11, i64 %2)
  %.not20.us.i = icmp eq i32 %bcmp.us.i, 0
  br i1 %.not20.us.i, label %ssl_cache_find_entry.exit, label %12

12:                                               ; preds = %10, %.lr.ph.split.us.i
  %13 = getelementptr inbounds nuw i8, ptr %.024.us.i, i64 64
  %.0.us.i = load ptr, ptr %13, align 8, !tbaa !11
  %.not.us.i = icmp eq ptr %.0.us.i, null
  br i1 %.not.us.i, label %ssl_cache_find_entry.exit.thread, label %.lr.ph.split.us.i, !llvm.loop !16

.lr.ph.split.i:                                   ; preds = %.lr.ph.i, %23
  %.024.i = phi ptr [ %.0.i, %23 ], [ %.022.i, %.lr.ph.i ]
  %14 = load i64, ptr %.024.i, align 8, !tbaa !18
  %15 = sub nsw i64 %5, %14
  %16 = trunc i64 %15 to i32
  %17 = icmp slt i32 %7, %16
  br i1 %17, label %23, label %18

18:                                               ; preds = %.lr.ph.split.i
  %19 = getelementptr inbounds nuw i8, ptr %.024.i, i64 40
  %20 = load i64, ptr %19, align 8, !tbaa !12
  %.not19.i = icmp eq i64 %2, %20
  br i1 %.not19.i, label %21, label %23

21:                                               ; preds = %18
  %22 = getelementptr inbounds nuw i8, ptr %.024.i, i64 8
  %bcmp.i = tail call i32 @bcmp(ptr readonly %1, ptr nonnull %22, i64 %2)
  %.not20.i = icmp eq i32 %bcmp.i, 0
  br i1 %.not20.i, label %ssl_cache_find_entry.exit, label %23

23:                                               ; preds = %21, %18, %.lr.ph.split.i
  %24 = getelementptr inbounds nuw i8, ptr %.024.i, i64 64
  %.0.i = load ptr, ptr %24, align 8, !tbaa !11
  %.not.i = icmp eq ptr %.0.i, null
  br i1 %.not.i, label %ssl_cache_find_entry.exit.thread, label %.lr.ph.split.i, !llvm.loop !16

ssl_cache_find_entry.exit:                        ; preds = %21, %10
  %.08 = phi ptr [ %.024.us.i, %10 ], [ %.024.i, %21 ]
  %25 = getelementptr inbounds nuw i8, ptr %.08, i64 48
  %26 = load ptr, ptr %25, align 8, !tbaa !19
  %27 = getelementptr inbounds nuw i8, ptr %.08, i64 56
  %28 = load i64, ptr %27, align 8, !tbaa !20
  %29 = tail call i32 @mbedtls_ssl_session_load(ptr noundef %3, ptr noundef %26, i64 noundef %28) #10
  br label %ssl_cache_find_entry.exit.thread

ssl_cache_find_entry.exit.thread:                 ; preds = %23, %12, %4, %ssl_cache_find_entry.exit
  %.0 = phi i32 [ %29, %ssl_cache_find_entry.exit ], [ -32384, %4 ], [ -32384, %12 ], [ -32384, %23 ]
  ret i32 %.0
}